Certificate:
    Data:
        Version: 3 (0x2)
        Serial Number: 1 (0x1)
    Signature Algorithm: sha1WithRSAEncryption
        Issuer: C=FR, ST=Ile-de-France, L=Vincennes, O=Rodolphe Wachter, CN=ROOT_CBI
        Validity
            Not Before: Oct 10 17:35:22 2016 GMT
            Not After : Oct 10 17:35:22 2017 GMT
        Subject: C=FR, ST=Ile-de-France, L=Vincennes, O=Rodolphe Wachter, CN=root_cbi_g2/emailAddress=root.cbi.g2@root.cbi.g2.fr
        Subject Public Key Info:
            Public Key Algorithm: rsaEncryption
                Public-Key: (2048 bit)
                Modulus:
                    00:c4:03:a6:cf:54:9b:80:62:ab:67:49:5c:6b:92:
                    72:35:ae:0b:82:06:2c:3b:4b:0f:e7:f2:4a:25:c4:
                    9e:49:a9:17:6d:c3:7b:1e:5b:7e:bd:54:8c:e2:b9:
                    e1:52:a4:fa:d0:4d:49:14:de:34:58:2e:9e:ef:53:
                    d8:f5:51:e1:ca:09:c4:aa:9b:20:4e:d2:32:2f:a4:
                    cf:3b:55:64:2f:cf:95:e6:c8:39:b2:b4:ca:c5:91:
                    07:eb:b8:f1:76:10:4f:b2:2d:23:1a:95:bd:83:fc:
                    16:42:66:ff:2e:71:d6:c3:f7:cc:ec:87:14:14:3d:
                    29:e5:81:40:16:6b:ea:77:c2:78:59:dd:e4:cb:8b:
                    42:e5:52:5d:f7:cd:f4:b2:02:3d:44:39:86:1d:0c:
                    a5:6d:c9:52:51:4c:3f:d4:b1:8c:43:c1:c5:2b:fd:
                    6b:71:3e:68:3f:61:25:dc:7a:5d:2f:20:5f:2d:bf:
                    03:dc:14:d3:65:1f:41:af:64:b8:f2:8e:98:a6:59:
                    60:c1:14:90:c2:b9:de:15:0d:29:5f:b0:37:7a:3b:
                    4d:fb:68:8c:c3:fe:49:0c:e1:9c:cb:c3:f6:d8:36:
                    e7:8e:d0:52:fe:6f:62:c8:81:45:60:e3:cd:db:0d:
                    d6:87:b8:d7:9f:5f:fa:a0:02:5a:9b:e5:f6:80:fb:
                    1e:b1
                Exponent: 65537 (0x10001)
        X509v3 extensions:
            Netscape Comment: 
                CA SSL
            X509v3 Basic Constraints: critical
                CA:TRUE, pathlen:0
            X509v3 Subject Key Identifier: 
                73:2D:AA:04:0F:12:9C:DA:9B:AE:72:39:33:FF:47:35:BF:69:7E:8B
            X509v3 Authority Key Identifier: 
                keyid:C2:2C:E5:13:E8:6E:8D:C0:8B:DF:7B:BA:34:EC:A2:B9:E2:EE:43:04
                DirName:/C=FR/ST=Ile-de-France/L=Vincennes/O=Rodolphe Wachter/CN=ROOT_CBI
                serial:84:29:F4:B3:C5:16:AB:04

            X509v3 Issuer Alternative Name: 
                <EMPTY>

            X509v3 Key Usage: 
                Certificate Sign, CRL Sign
            Netscape Cert Type: 
                SSL CA
    Signature Algorithm: sha1WithRSAEncryption
         0f:49:b3:0d:c6:3e:5b:1c:fa:3e:05:e0:ee:43:d0:cb:c3:d8:
         3f:43:78:3a:6b:c7:a8:1a:8e:76:ca:c4:83:24:24:d5:64:09:
         b2:44:2f:bf:ff:4c:32:c8:8a:de:4e:30:88:8a:c4:2b:3e:70:
         27:a7:31:1f:ac:3c:62:b0:5c:0e:d3:bb:c4:ae:e3:ce:2b:80:
         06:dc:bc:e5:a9:5e:cc:c7:c7:9b:6a:a0:62:5f:82:57:8e:bb:
         78:e4:b6:89:fc:2d:a3:35:8f:da:c5:8d:6c:93:2d:d8:ec:13:
         02:8f:51:9f:fb:58:2f:ab:c3:40:02:48:85:55:0b:3e:47:5d:
         6b:29:34:32:11:f0:5c:dc:1c:c0:76:f0:ae:4f:78:d8:d4:ad:
         a2:af:1b:2f:1e:01:38:da:04:ad:32:33:37:6c:8d:9f:3f:c9:
         e1:9d:b2:ee:dc:78:ac:dd:9b:14:e8:76:47:bf:55:28:03:b2:
         b2:4d:25:a0:33:1e:b6:4b:75:54:e7:15:03:56:cf:62:64:5d:
         b3:3e:e9:58:20:b6:20:59:ae:36:63:0a:ac:2b:5c:b6:e5:49:
         3e:a8:ff:f7:08:7b:24:28:b9:0f:66:20:5a:e2:94:7e:2f:45:
         f5:61:ea:20:14:46:73:99:66:fb:06:31:40:1b:2d:96:db:04:
         9e:71:09:e0
-----BEGIN CERTIFICATE-----
MIIEjzCCA3egAwIBAgIBATANBgkqhkiG9w0BAQUFADBnMQswCQYDVQQGEwJGUjEW
MBQGA1UECAwNSWxlLWRlLUZyYW5jZTESMBAGA1UEBwwJVmluY2VubmVzMRkwFwYD
VQQKDBBSb2RvbHBoZSBXYWNodGVyMREwDwYDVQQDDAhST09UX0NCSTAeFw0xNjEw
MTAxNzM1MjJaFw0xNzEwMTAxNzM1MjJaMIGVMQswCQYDVQQGEwJGUjEWMBQGA1UE
CAwNSWxlLWRlLUZyYW5jZTESMBAGA1UEBwwJVmluY2VubmVzMRkwFwYDVQQKDBBS
b2RvbHBoZSBXYWNodGVyMRQwEgYDVQQDDAtyb290X2NiaV9nMjEpMCcGCSqGSIb3
DQEJARYacm9vdC5jYmkuZzJAcm9vdC5jYmkuZzIuZnIwggEiMA0GCSqGSIb3DQEB
AQUAA4IBDwAwggEKAoIBAQDEA6bPVJuAYqtnSVxrknI1rguCBiw7Sw/n8kolxJ5J
qRdtw3seW369VIziueFSpPrQTUkU3jRYLp7vU9j1UeHKCcSqmyBO0jIvpM87VWQv
z5XmyDmytMrFkQfruPF2EE+yLSMalb2D/BZCZv8ucdbD98zshxQUPSnlgUAWa+p3
wnhZ3eTLi0LlUl33zfSyAj1EOYYdDKVtyVJRTD/UsYxDwcUr/WtxPmg/YSXcel0v
IF8tvwPcFNNlH0GvZLjyjpimWWDBFJDCud4VDSlfsDd6O037aIzD/kkM4ZzLw/bY
NueO0FL+b2LIgUVg483bDdaHuNefX/qgAlqb5faA+x6xAgMBAAGjggEVMIIBETAV
BglghkgBhvhCAQ0ECBYGQ0EgU1NMMBIGA1UdEwEB/wQIMAYBAf8CAQAwHQYDVR0O
BBYEFHMtqgQPEpzam65yOTP/RzW/aX6LMIGZBgNVHSMEgZEwgY6AFMIs5RPobo3A
i997ujTsorni7kMEoWukaTBnMQswCQYDVQQGEwJGUjEWMBQGA1UECAwNSWxlLWRl
LUZyYW5jZTESMBAGA1UEBwwJVmluY2VubmVzMRkwFwYDVQQKDBBSb2RvbHBoZSBX
YWNodGVyMREwDwYDVQQDDAhST09UX0NCSYIJAIQp9LPFFqsEMAkGA1UdEgQCMAAw
CwYDVR0PBAQDAgEGMBEGCWCGSAGG+EIBAQQEAwICBDANBgkqhkiG9w0BAQUFAAOC
AQEAD0mzDcY+Wxz6PgXg7kPQy8PYP0N4OmvHqBqOdsrEgyQk1WQJskQvv/9MMsiK
3k4wiIrEKz5wJ6cxH6w8YrBcDtO7xK7jziuABty85alezMfHm2qgYl+CV467eOS2
ifwtozWP2sWNbJMt2OwTAo9Rn/tYL6vDQAJIhVULPkddayk0MhHwXNwcwHbwrk94
2NStoq8bLx4BONoErTIzN2yNnz/J4Z2y7tx4rN2bFOh2R79VKAOysk0loDMetkt1
VOcVA1bPYmRdsz7pWCC2IFmuNmMKrCtctuVJPqj/9wh7JCi5D2YgWuKUfi9F9WHq
IBRGc5lm+wYxQBstltsEnnEJ4A==
-----END CERTIFICATE-----
