Certificate:
    Data:
        Version: 3 (0x2)
        Serial Number: 2 (0x2)
    Signature Algorithm: sha1WithRSAEncryption
        Issuer: C=FR, ST=Ile-de-France, L=Vincennes, O=Rodolphe Wachter, CN=root_cbi_g2/emailAddress=root.cbi.g2@root.cbi.g2.fr
        Validity
            Not Before: Oct 10 17:46:37 2016 GMT
            Not After : Oct 10 17:46:37 2017 GMT
        Subject: C=FR, ST=Ile-de-France, L=Vincennes, O=Rodolphe Wachter, CN=ubuntu@cantbreakit.fr/emailAddress=ubuntucant@cantbreakit.fr
        Subject Public Key Info:
            Public Key Algorithm: rsaEncryption
                Public-Key: (1024 bit)
                Modulus:
                    00:c6:9d:86:75:e8:34:c4:40:b4:25:2a:70:56:33:
                    29:63:8a:5b:1b:0a:4d:ed:e7:4c:af:44:e1:3a:67:
                    96:fa:8b:8d:50:56:6c:6f:45:46:63:14:20:49:45:
                    93:4e:07:a7:15:2c:a3:76:a2:74:dd:a2:76:5d:d7:
                    f3:ca:58:54:6f:b7:92:5b:cb:49:01:21:ce:54:c2:
                    dd:8e:b4:17:30:9a:77:6e:c9:39:f6:0b:11:0d:f1:
                    5a:df:ed:e1:b9:59:a0:5f:f4:d3:93:81:e9:c3:ae:
                    71:d1:13:ec:49:07:ba:25:e2:79:61:bd:ca:67:81:
                    dd:03:bd:74:4f:13:05:c9:0b
                Exponent: 65537 (0x10001)
        X509v3 extensions:
            Netscape Comment: 
                Certificat Client SSL
            X509v3 Subject Key Identifier: 
                02:4A:BC:E9:2C:E9:F7:02:82:41:9C:EF:87:EA:BD:2D:FD:B7:97:77
            X509v3 Authority Key Identifier: 
                keyid:73:2D:AA:04:0F:12:9C:DA:9B:AE:72:39:33:FF:47:35:BF:69:7E:8B
                DirName:/C=FR/ST=Ile-de-France/L=Vincennes/O=Rodolphe Wachter/CN=ROOT_CBI
                serial:01

            X509v3 Issuer Alternative Name: 
                <EMPTY>

            X509v3 Subject Alternative Name: critical
                email:ubuntucant@cantbreakit.fr, email:user-bis@domain.com, email:user-ter@domain.com
            X509v3 Basic Constraints: critical
                CA:FALSE
            X509v3 Key Usage: 
                Digital Signature, Non Repudiation
            Netscape Cert Type: 
                SSL Client
            X509v3 Extended Key Usage: 
                TLS Web Client Authentication
    Signature Algorithm: sha1WithRSAEncryption
         7f:fc:7b:9e:10:22:97:3d:06:db:c8:2b:8a:d7:94:c4:09:be:
         b9:b1:c5:c9:0c:bc:3d:85:d3:17:7a:12:af:35:a5:63:9d:16:
         ab:8d:63:ee:54:9e:c0:49:b0:f4:64:d1:0e:ae:b0:bf:1b:d2:
         8b:2e:57:52:c1:36:9c:d2:3e:6d:0b:75:90:16:20:ac:e2:90:
         59:36:56:a2:90:4a:25:e5:b7:a9:59:e1:16:75:31:f4:b4:af:
         83:6a:8b:0a:8c:3e:b0:8d:a1:fa:af:02:94:1b:b6:8c:89:50:
         80:88:c0:a5:ac:68:c7:78:0e:4c:6f:95:09:14:7e:0f:85:ee:
         c4:40:27:b3:79:40:a4:64:8d:18:73:9d:13:d2:77:47:f9:f4:
         e0:1e:41:5a:eb:ec:98:1e:01:71:54:de:83:59:1b:86:d9:6e:
         d6:d7:8b:6d:1c:0f:2b:2e:70:ed:15:ae:bb:35:7c:d9:cd:0f:
         ef:a5:b6:91:e1:96:e3:c4:5f:f2:ba:3c:ea:d1:a9:eb:d8:69:
         d7:07:59:b1:89:fa:26:c2:83:dc:e3:35:13:f5:0c:d9:2b:1e:
         8c:5c:d0:bf:8b:32:38:72:3f:1f:5f:79:59:e8:58:f0:f8:48:
         e6:32:92:a4:75:07:73:3d:98:a5:32:e5:98:dd:af:6b:bf:25:
         1f:3d:d6:46
-----BEGIN CERTIFICATE-----
MIIErDCCA5SgAwIBAgIBAjANBgkqhkiG9w0BAQUFADCBlTELMAkGA1UEBhMCRlIx
FjAUBgNVBAgMDUlsZS1kZS1GcmFuY2UxEjAQBgNVBAcMCVZpbmNlbm5lczEZMBcG
A1UECgwQUm9kb2xwaGUgV2FjaHRlcjEUMBIGA1UEAwwLcm9vdF9jYmlfZzIxKTAn
BgkqhkiG9w0BCQEWGnJvb3QuY2JpLmcyQHJvb3QuY2JpLmcyLmZyMB4XDTE2MTAx
MDE3NDYzN1oXDTE3MTAxMDE3NDYzN1owgZ4xCzAJBgNVBAYTAkZSMRYwFAYDVQQI
DA1JbGUtZGUtRnJhbmNlMRIwEAYDVQQHDAlWaW5jZW5uZXMxGTAXBgNVBAoMEFJv
ZG9scGhlIFdhY2h0ZXIxHjAcBgNVBAMMFXVidW50dUBjYW50YnJlYWtpdC5mcjEo
MCYGCSqGSIb3DQEJARYZdWJ1bnR1Y2FudEBjYW50YnJlYWtpdC5mcjCBnzANBgkq
hkiG9w0BAQEFAAOBjQAwgYkCgYEAxp2Gdeg0xEC0JSpwVjMpY4pbGwpN7edMr0Th
OmeW+ouNUFZsb0VGYxQgSUWTTgenFSyjdqJ03aJ2XdfzylhUb7eSW8tJASHOVMLd
jrQXMJp3bsk59gsRDfFa3+3huVmgX/TTk4Hpw65x0RPsSQe6JeJ5Yb3KZ4HdA710
TxMFyQsCAwEAAaOCAX4wggF6MCQGCWCGSAGG+EIBDQQXFhVDZXJ0aWZpY2F0IENs
aWVudCBTU0wwHQYDVR0OBBYEFAJKvOks6fcCgkGc74fqvS39t5d3MIGRBgNVHSME
gYkwgYaAFHMtqgQPEpzam65yOTP/RzW/aX6LoWukaTBnMQswCQYDVQQGEwJGUjEW
MBQGA1UECAwNSWxlLWRlLUZyYW5jZTESMBAGA1UEBwwJVmluY2VubmVzMRkwFwYD
VQQKDBBSb2RvbHBoZSBXYWNodGVyMREwDwYDVQQDDAhST09UX0NCSYIBATAJBgNV
HRIEAjAAMFEGA1UdEQEB/wRHMEWBGXVidW50dWNhbnRAY2FudGJyZWFraXQuZnKB
E3VzZXItYmlzQGRvbWFpbi5jb22BE3VzZXItdGVyQGRvbWFpbi5jb20wDAYDVR0T
AQH/BAIwADALBgNVHQ8EBAMCBsAwEQYJYIZIAYb4QgEBBAQDAgeAMBMGA1UdJQQM
MAoGCCsGAQUFBwMCMA0GCSqGSIb3DQEBBQUAA4IBAQB//HueECKXPQbbyCuK15TE
Cb65scXJDLw9hdMXehKvNaVjnRarjWPuVJ7ASbD0ZNEOrrC/G9KLLldSwTac0j5t
C3WQFiCs4pBZNlaikEol5bepWeEWdTH0tK+DaosKjD6wjaH6rwKUG7aMiVCAiMCl
rGjHeA5Mb5UJFH4Phe7EQCezeUCkZI0Yc50T0ndH+fTgHkFa6+yYHgFxVN6DWRuG
2W7W14ttHA8rLnDtFa67NXzZzQ/vpbaR4ZbjxF/yujzq0anr2GnXB1mxifomwoPc
4zUT9QzZKx6MXNC/izI4cj8fX3lZ6Fjw+EjmMpKkdQdzPZilMuWY3a9rvyUfPdZG
-----END CERTIFICATE-----
