Certificate:
    Data:
        Version: 3 (0x2)
        Serial Number: 1 (0x1)
    Signature Algorithm: sha1WithRSAEncryption
        Issuer: C=FR, ST=Ile-de-France, L=Vincennes, O=Rodolphe Wachter, CN=root_cbi_g2/emailAddress=root.cbi.g2@root.cbi.g2.fr
        Validity
            Not Before: Oct 10 17:43:11 2016 GMT
            Not After : Oct 10 17:43:11 2017 GMT
        Subject: C=FR, ST=Ile-de-France, L=Vincennes, O=Rodolphe Wachter, CN=www.cantbreakit.fr/emailAddress=cantbreakit@cantbreakit.fr
        Subject Public Key Info:
            Public Key Algorithm: rsaEncryption
                Public-Key: (1024 bit)
                Modulus:
                    00:bb:74:c5:52:52:af:8d:ba:a5:72:90:5b:b8:ed:
                    cf:19:62:3e:20:1b:6f:13:e7:ce:30:f8:51:d9:33:
                    cf:30:e3:a9:3a:ab:5a:bf:82:20:5a:39:23:eb:bc:
                    d3:34:c6:eb:e7:5b:9a:d2:ae:e2:f7:fc:de:4a:d2:
                    16:21:7f:94:a5:2d:b8:32:64:11:2e:85:2d:1b:08:
                    95:e1:e6:39:f3:26:73:18:1a:00:ac:80:a2:7a:a0:
                    e2:09:f1:11:dd:04:8a:ac:01:a9:4e:a4:70:c4:46:
                    63:98:fd:32:46:fe:7a:b1:55:0d:f7:2e:c7:22:13:
                    27:38:79:b5:9e:90:c2:da:71
                Exponent: 65537 (0x10001)
        X509v3 extensions:
            Netscape Comment: 
                Certificat Serveur SSL
            X509v3 Subject Key Identifier: 
                0B:B7:3B:8F:AB:2E:E0:91:D4:6B:2E:4F:48:38:F9:A0:D2:60:AB:4A
            X509v3 Authority Key Identifier: 
                keyid:73:2D:AA:04:0F:12:9C:DA:9B:AE:72:39:33:FF:47:35:BF:69:7E:8B
                DirName:/C=FR/ST=Ile-de-France/L=Vincennes/O=Rodolphe Wachter/CN=ROOT_CBI
                serial:01

            X509v3 Issuer Alternative Name: 
                <EMPTY>

            X509v3 Subject Alternative Name: 
                DNS:www.webserver.com, DNS:www.webserver-bis.com
            X509v3 Basic Constraints: critical
                CA:FALSE
            X509v3 Key Usage: 
                Digital Signature, Non Repudiation, Key Encipherment
            Netscape Cert Type: 
                SSL Server
            X509v3 Extended Key Usage: 
                TLS Web Server Authentication
    Signature Algorithm: sha1WithRSAEncryption
         6a:b3:76:7e:26:ac:f0:a5:e1:7e:04:18:ec:42:24:7c:d8:dc:
         19:0f:b4:8b:cf:06:55:b2:57:24:79:f6:27:d3:cc:11:38:78:
         0a:f7:47:6c:fb:6c:3d:69:c3:8e:a5:a6:ee:03:2d:b8:64:de:
         e6:71:b9:74:44:5b:2b:78:9e:df:4c:d8:0c:89:50:66:73:19:
         25:f0:05:5a:de:82:38:be:b5:df:ec:91:74:ae:e0:73:88:92:
         04:72:e9:4f:2e:ce:a0:38:33:fa:da:b9:34:f3:1e:bf:cf:ea:
         3d:1b:d9:69:d6:4c:9f:f1:63:10:75:5b:65:a1:eb:c2:6f:71:
         8b:43:5a:bd:3d:f6:b6:02:72:57:6f:39:65:6b:3f:f2:e7:70:
         db:ba:05:39:ef:08:4d:44:ea:8a:50:17:6a:24:5b:f2:23:a5:
         2e:d4:8c:3a:74:82:42:66:38:b9:ff:cd:00:ea:89:89:32:7e:
         52:bc:25:e0:d8:d3:9d:e5:c7:d3:9e:6e:f4:37:5e:2a:07:83:
         3e:7a:61:50:77:d4:9f:15:da:ee:51:db:b7:f3:5c:ed:ef:2d:
         33:f7:85:07:79:ce:98:46:dd:f8:2e:85:7b:09:20:bf:6d:56:
         0d:ac:36:aa:94:22:90:63:32:f0:9b:1f:8c:18:96:09:79:a4:
         c8:bf:2e:dd
-----BEGIN CERTIFICATE-----
MIIEjTCCA3WgAwIBAgIBATANBgkqhkiG9w0BAQUFADCBlTELMAkGA1UEBhMCRlIx
FjAUBgNVBAgMDUlsZS1kZS1GcmFuY2UxEjAQBgNVBAcMCVZpbmNlbm5lczEZMBcG
A1UECgwQUm9kb2xwaGUgV2FjaHRlcjEUMBIGA1UEAwwLcm9vdF9jYmlfZzIxKTAn
BgkqhkiG9w0BCQEWGnJvb3QuY2JpLmcyQHJvb3QuY2JpLmcyLmZyMB4XDTE2MTAx
MDE3NDMxMVoXDTE3MTAxMDE3NDMxMVowgZwxCzAJBgNVBAYTAkZSMRYwFAYDVQQI
DA1JbGUtZGUtRnJhbmNlMRIwEAYDVQQHDAlWaW5jZW5uZXMxGTAXBgNVBAoMEFJv
ZG9scGhlIFdhY2h0ZXIxGzAZBgNVBAMMEnd3dy5jYW50YnJlYWtpdC5mcjEpMCcG
CSqGSIb3DQEJARYaY2FudGJyZWFraXRAY2FudGJyZWFraXQuZnIwgZ8wDQYJKoZI
hvcNAQEBBQADgY0AMIGJAoGBALt0xVJSr426pXKQW7jtzxliPiAbbxPnzjD4Udkz
zzDjqTqrWr+CIFo5I+u80zTG6+dbmtKu4vf83krSFiF/lKUtuDJkES6FLRsIleHm
OfMmcxgaAKyAonqg4gnxEd0EiqwBqU6kcMRGY5j9Mkb+erFVDfcuxyITJzh5tZ6Q
wtpxAgMBAAGjggFhMIIBXTAlBglghkgBhvhCAQ0EGBYWQ2VydGlmaWNhdCBTZXJ2
ZXVyIFNTTDAdBgNVHQ4EFgQUC7c7j6su4JHUay5PSDj5oNJgq0owgZEGA1UdIwSB
iTCBhoAUcy2qBA8SnNqbrnI5M/9HNb9pfouha6RpMGcxCzAJBgNVBAYTAkZSMRYw
FAYDVQQIDA1JbGUtZGUtRnJhbmNlMRIwEAYDVQQHDAlWaW5jZW5uZXMxGTAXBgNV
BAoMEFJvZG9scGhlIFdhY2h0ZXIxETAPBgNVBAMMCFJPT1RfQ0JJggEBMAkGA1Ud
EgQCMAAwMwYDVR0RBCwwKoIRd3d3LndlYnNlcnZlci5jb22CFXd3dy53ZWJzZXJ2
ZXItYmlzLmNvbTAMBgNVHRMBAf8EAjAAMAsGA1UdDwQEAwIF4DARBglghkgBhvhC
AQEEBAMCBkAwEwYDVR0lBAwwCgYIKwYBBQUHAwEwDQYJKoZIhvcNAQEFBQADggEB
AGqzdn4mrPCl4X4EGOxCJHzY3BkPtIvPBlWyVyR59ifTzBE4eAr3R2z7bD1pw46l
pu4DLbhk3uZxuXREWyt4nt9M2AyJUGZzGSXwBVregji+td/skXSu4HOIkgRy6U8u
zqA4M/rauTTzHr/P6j0b2WnWTJ/xYxB1W2Wh68JvcYtDWr099rYCcldvOWVrP/Ln
cNu6BTnvCE1E6opQF2okW/IjpS7UjDp0gkJmOLn/zQDqiYkyflK8JeDY053lx9Oe
bvQ3XioHgz56YVB31J8V2u5R27fzXO3vLTP3hQd5zphG3fguhXsJIL9tVg2sNqqU
IpBjMvCbH4wYlgl5pMi/Lt0=
-----END CERTIFICATE-----
